target datalayout = "e-m:e-p270:32:32-p271:32:32-p272:64:64-i64:64-i128:128-f80:128-n8:16:32:64-S128"
target triple = "x86_64-pc-linux-gnu"

%struct.AVFilterFormatsConfig = type { ptr, ptr, ptr, ptr, ptr }

@query_formats.in_fmts = internal constant [2 x i32] [i32 11, i32 -1], align 4
@query_formats.out_fmts = internal constant [2 x i32] [i32 28, i32 -1], align 4

; Function Attrs: nounwind uwtable
define internal i32 @query_formats(ptr noundef %0, ptr noundef %1, ptr noundef %2) #0 {
  %4 = alloca i32, align 4
  %5 = alloca ptr, align 8
  %6 = alloca ptr, align 8
  %7 = alloca ptr, align 8
  %8 = alloca i32, align 4
  %9 = alloca i32, align 4
  store ptr %0, ptr %5, align 8, !tbaa !4
  store ptr %1, ptr %6, align 8, !tbaa !9
  store ptr %2, ptr %7, align 8, !tbaa !9
  call void @llvm.lifetime.start.p0(i64 4, ptr %8) #3
  %10 = call ptr @ff_make_format_list(ptr noundef @query_formats.in_fmts)
  %11 = load ptr, ptr %6, align 8, !tbaa !9
  %12 = getelementptr inbounds ptr, ptr %11, i64 0
  %13 = load ptr, ptr %12, align 8, !tbaa !12
  %14 = getelementptr inbounds nuw %struct.AVFilterFormatsConfig, ptr %13, i32 0, i32 0
  %15 = call i32 @ff_formats_ref(ptr noundef %10, ptr noundef %14)
  store i32 %15, ptr %8, align 4, !tbaa !14
  %16 = load i32, ptr %8, align 4, !tbaa !14
  %17 = icmp slt i32 %16, 0
  br i1 %17, label %18, label %20

18:                                               ; preds = %3
  %19 = load i32, ptr %8, align 4, !tbaa !14
  store i32 %19, ptr %4, align 4
  store i32 1, ptr %9, align 4
  br label %27

20:                                               ; preds = %3
  %21 = call ptr @ff_make_format_list(ptr noundef @query_formats.out_fmts)
  %22 = load ptr, ptr %7, align 8, !tbaa !9
  %23 = getelementptr inbounds ptr, ptr %22, i64 0
  %24 = load ptr, ptr %23, align 8, !tbaa !12
  %25 = getelementptr inbounds nuw %struct.AVFilterFormatsConfig, ptr %24, i32 0, i32 0
  %26 = call i32 @ff_formats_ref(ptr noundef %21, ptr noundef %25)
  store i32 %26, ptr %4, align 4
  store i32 1, ptr %9, align 4
  br label %27

27:                                               ; preds = %20, %18
  call void @llvm.lifetime.end.p0(i64 4, ptr %8) #3
  %28 = load i32, ptr %4, align 4
  ret i32 %28
}