; Function Attrs: nounwind uwtable
define internal i32 @query_formats(ptr readnone captures(none) %0, ptr noundef readonly captures(none) %1, ptr noundef readonly captures(none) %2) #0 {
  %4 = tail call ptr @ff_make_format_list(ptr noundef nonnull @query_formats.in_fmts) #3
  %5 = load ptr, ptr %1, align 8, !tbaa !4
  %6 = tail call i32 @ff_formats_ref(ptr noundef %4, ptr noundef %5) #3
  %7 = icmp slt i32 %6, 0
  br i1 %7, label %12, label %8

8:                                                ; preds = %3
  %9 = tail call ptr @ff_make_format_list(ptr noundef nonnull @query_formats.out_fmts) #3
  %10 = load ptr, ptr %2, align 8, !tbaa !4
  %11 = tail call i32 @ff_formats_ref(ptr noundef %9, ptr noundef %10) #3
  br label %12

12:                                               ; preds = %3, %8
  %.0 = phi i32 [ %11, %8 ], [ %6, %3 ]
  ret i32 %.0
}